Certificate:
    Data:
        Version: 3 (0x2)
        Serial Number: 1 (0x1)
    Signature Algorithm: sha256WithRSAEncryption
        Issuer: CN=Holsee Root Certificate Authority, ST=NI, C=UK/emailAddress=sholdsworth@gmail.com, O=holsee, OU=dev
        Validity
            Not Before: Apr  2 13:06:54 2018 GMT
            Not After : Apr  1 13:06:54 2023 GMT
        Subject: CN=localhost, ST=NI, C=UK/emailAddress=sholdsworth@gmail.com, O=holsee, OU=dev
        Subject Public Key Info:
            Public Key Algorithm: rsaEncryption
                Public-Key: (2048 bit)
                Modulus:
                    00:b7:a8:18:23:99:99:a7:16:a0:7c:09:c5:65:8c:
                    14:2c:e6:13:3e:fe:e9:17:b6:c8:a1:f4:bb:46:4f:
                    21:4a:e9:88:98:51:8d:59:5d:9c:d1:56:c3:3a:ec:
                    e5:d7:9b:88:eb:20:cf:6a:d6:29:f6:ce:5b:cd:e1:
                    de:63:3c:a5:e2:23:a6:3f:ff:eb:8c:21:0a:0b:25:
                    54:54:b4:31:15:ae:ac:00:bf:6b:9f:35:4f:76:f9:
                    68:cf:ea:7a:b4:6c:ce:18:e6:42:b0:38:29:8f:f2:
                    c1:bd:b7:70:20:f1:d8:81:5e:bf:1e:c7:5d:f6:e7:
                    62:01:ed:b3:5e:01:cb:75:27:c2:04:62:72:f5:2c:
                    a5:b7:c9:e0:bc:06:d6:63:bb:99:49:82:80:de:d1:
                    45:b0:1c:fe:94:7c:c9:88:45:ab:3b:b8:cb:74:ce:
                    f3:e1:7b:bd:06:8f:b3:b9:71:8c:de:87:cc:70:58:
                    7b:9e:97:56:27:31:0c:88:f9:ce:ae:5e:8f:a0:a6:
                    49:7a:6a:6e:c4:95:e3:7a:6d:2b:d0:29:36:84:03:
                    e1:05:2e:4d:ec:4f:ff:27:2d:5b:18:ac:47:30:eb:
                    32:65:5f:e0:70:fa:06:4f:10:2c:70:8e:a6:67:9f:
                    5d:d8:bc:04:6a:7a:77:67:6b:9d:88:6a:ae:9b:ef:
                    49:41
                Exponent: 65537 (0x10001)
        X509v3 extensions:
            X509v3 Basic Constraints: 
                CA:FALSE
            X509v3 Key Usage: 
                Digital Signature, Non Repudiation, Key Encipherment
            X509v3 Subject Alternative Name: 
                DNS:localhost, DNS:localhost.local
    Signature Algorithm: sha256WithRSAEncryption
         69:ec:1f:b0:84:c2:96:16:08:44:24:ea:bb:d3:45:fc:15:c6:
         7c:25:b4:e4:c5:fa:25:5e:57:df:44:2e:64:22:c8:f5:10:ae:
         1a:12:97:7e:a0:b1:07:87:94:fb:46:cd:e8:ca:c9:fc:dd:d4:
         1f:27:73:0a:33:da:25:65:ec:ea:6c:94:1b:36:2a:cd:ba:eb:
         1f:d3:70:d2:96:b7:8d:2a:55:86:37:19:29:5f:e9:d8:6d:0b:
         3d:86:e7:3b:29:68:4a:f6:44:b4:cc:a3:bc:c4:8a:95:f8:17:
         7d:f6:11:d7:0d:85:a6:df:4a:f2:14:9c:08:49:9d:ec:3c:15:
         ce:c1:bf:41:60:d9:01:7c:cc:84:f5:b4:af:e1:43:8a:6d:61:
         74:63:ad:3c:05:d6:54:58:65:72:40:50:0d:cf:65:31:74:8f:
         50:ff:c6:8d:37:bc:df:10:19:2e:62:84:8f:ad:63:01:90:b0:
         ee:a2:3f:a3:96:34:42:e1:54:75:1f:1b:ea:e4:2a:da:56:13:
         16:1d:a6:b3:26:02:a4:3a:a3:2f:fa:8e:76:19:9c:f7:ca:83:
         0c:ea:87:4b:dd:d4:53:ee:40:24:d7:59:0a:c7:da:53:9c:33:
         99:41:b3:65:40:a1:b2:69:61:2d:28:d5:d5:e6:c9:ae:66:06:
         5a:1d:5e:64
-----BEGIN CERTIFICATE-----
MIIDuzCCAqOgAwIBAgIBATANBgkqhkiG9w0BAQsFADCBizEqMCgGA1UEAwwhSG9s
c2VlIFJvb3QgQ2VydGlmaWNhdGUgQXV0aG9yaXR5MQswCQYDVQQIDAJOSTELMAkG
A1UEBhMCVUsxJDAiBgkqhkiG9w0BCQEWFXNob2xkc3dvcnRoQGdtYWlsLmNvbTEP
MA0GA1UECgwGaG9sc2VlMQwwCgYDVQQLDANkZXYwHhcNMTgwNDAyMTMwNjU0WhcN
MjMwNDAxMTMwNjU0WjBzMRIwEAYDVQQDDAlsb2NhbGhvc3QxCzAJBgNVBAgMAk5J
MQswCQYDVQQGEwJVSzEkMCIGCSqGSIb3DQEJARYVc2hvbGRzd29ydGhAZ21haWwu
Y29tMQ8wDQYDVQQKDAZob2xzZWUxDDAKBgNVBAsMA2RldjCCASIwDQYJKoZIhvcN
AQEBBQADggEPADCCAQoCggEBALeoGCOZmacWoHwJxWWMFCzmEz7+6Re2yKH0u0ZP
IUrpiJhRjVldnNFWwzrs5debiOsgz2rWKfbOW83h3mM8peIjpj//64whCgslVFS0
MRWurAC/a581T3b5aM/qerRszhjmQrA4KY/ywb23cCDx2IFevx7HXfbnYgHts14B
y3UnwgRicvUspbfJ4LwG1mO7mUmCgN7RRbAc/pR8yYhFqzu4y3TO8+F7vQaPs7lx
jN6HzHBYe56XVicxDIj5zq5ej6CmSXpqbsSV43ptK9ApNoQD4QUuTexP/yctWxis
RzDrMmVf4HD6Bk8QLHCOpmefXdi8BGp6d2drnYhqrpvvSUECAwEAAaNBMD8wCQYD
VR0TBAIwADALBgNVHQ8EBAMCBeAwJQYDVR0RBB4wHIIJbG9jYWxob3N0gg9sb2Nh
bGhvc3QubG9jYWwwDQYJKoZIhvcNAQELBQADggEBAGnsH7CEwpYWCEQk6rvTRfwV
xnwltOTF+iVeV99ELmQiyPUQrhoSl36gsQeHlPtGzejKyfzd1B8ncwoz2iVl7Ops
lBs2Ks266x/TcNKWt40qVYY3GSlf6dhtCz2G5zspaEr2RLTMo7zEipX4F332EdcN
habfSvIUnAhJnew8Fc7Bv0Fg2QF8zIT1tK/hQ4ptYXRjrTwF1lRYZXJAUA3PZTF0
j1D/xo03vN8QGS5ihI+tYwGQsO6iP6OWNELhVHUfG+rkKtpWExYdprMmAqQ6oy/6
jnYZnPfKgwzqh0vd1FPuQCTXWQrH2lOcM5lBs2VAobJpYS0o1dXmya5mBlodXmQ=
-----END CERTIFICATE-----
